target datalayout = "e-m:e-p270:32:32-p271:32:32-p272:64:64-i64:64-i128:128-f80:128-n8:16:32:64-S128"
target triple = "x86_64-pc-linux-gnu"

%struct.SDL_CameraDriver = type { ptr, ptr, %struct.SDL_CameraDriverImpl, ptr, ptr, %struct.SDL_PendingCameraEvent, ptr, %struct.SDL_AtomicInt, %struct.SDL_AtomicInt }
%struct.SDL_CameraDriverImpl = type { ptr, ptr, ptr, ptr, ptr, ptr, ptr, ptr, i8 }
%struct.SDL_PendingCameraEvent = type { i32, i32, ptr }
%struct.SDL_AtomicInt = type { i32 }
%struct.GetOneCameraData = type { ptr, i32 }

@camera_driver = internal global %struct.SDL_CameraDriver zeroinitializer, align 8
@.str.3 = private unnamed_addr constant [36 x i8] c"Camera subsystem is not initialized\00", align 1

; Function Attrs: nounwind uwtable
define hidden ptr @SDL_GetCurrentCameraDriver_REAL() #0 {
  %1 = load ptr, ptr @camera_driver, align 8
  ret ptr %1
}

; Function Attrs: nounwind uwtable
define hidden ptr @SDL_GetCameras_REAL(ptr noundef %0) #0 {
  %2 = alloca ptr, align 8
  %3 = alloca ptr, align 8
  %4 = alloca i32, align 4
  %5 = alloca i32, align 4
  %6 = alloca ptr, align 8
  %7 = alloca i32, align 4
  %8 = alloca %struct.GetOneCameraData, align 8
  store ptr %0, ptr %3, align 8
  call void @llvm.lifetime.start.p0(i64 4, ptr %4) #7
  %9 = load ptr, ptr %3, align 8
  %10 = icmp ne ptr %9, null
  br i1 %10, label %12, label %11

11:                                               ; preds = %1
  store ptr %4, ptr %3, align 8
  br label %12

12:                                               ; preds = %11, %1
  %13 = call ptr @SDL_GetCurrentCameraDriver_REAL()
  %14 = icmp ne ptr %13, null
  br i1 %14, label %18, label %15

15:                                               ; preds = %12
  %16 = load ptr, ptr %3, align 8
  store i32 0, ptr %16, align 4
  %17 = call zeroext i1 (ptr, ...) @SDL_SetError_REAL(ptr noundef @.str.3)
  store ptr null, ptr %2, align 8
  store i32 1, ptr %5, align 4
  br label %48

18:                                               ; preds = %12
  call void @llvm.lifetime.start.p0(i64 8, ptr %6) #7
  store ptr null, ptr %6, align 8
  %19 = load ptr, ptr getelementptr inbounds nuw (%struct.SDL_CameraDriver, ptr @camera_driver, i32 0, i32 3), align 8
  call void @SDL_LockRWLockForReading_REAL(ptr noundef %19)
  call void @llvm.lifetime.start.p0(i64 4, ptr %7) #7
  %20 = call i32 @SDL_GetAtomicInt_REAL(ptr noundef getelementptr inbounds nuw (%struct.SDL_CameraDriver, ptr @camera_driver, i32 0, i32 7))
  store i32 %20, ptr %7, align 4
  %21 = load i32, ptr %7, align 4
  %22 = add nsw i32 %21, 1
  %23 = sext i32 %22 to i64
  %24 = mul i64 %23, 4
  %25 = call noalias ptr @SDL_malloc_REAL(i64 noundef %24)
  store ptr %25, ptr %6, align 8
  %26 = load ptr, ptr %6, align 8
  %27 = icmp ne ptr %26, null
  br i1 %27, label %29, label %28

28:                                               ; preds = %18
  store i32 0, ptr %7, align 4
  br label %43

29:                                               ; preds = %18
  call void @llvm.lifetime.start.p0(i64 16, ptr %8) #7
  %30 = getelementptr inbounds nuw %struct.GetOneCameraData, ptr %8, i32 0, i32 0
  %31 = load ptr, ptr %6, align 8
  store ptr %31, ptr %30, align 8
  %32 = getelementptr inbounds nuw %struct.GetOneCameraData, ptr %8, i32 0, i32 1
  store i32 0, ptr %32, align 8
  %33 = getelementptr i8, ptr %8, i64 12
  call void @llvm.memset.p0.i64(ptr align 4 %33, i8 0, i64 4, i1 false)
  %34 = load ptr, ptr getelementptr inbounds nuw (%struct.SDL_CameraDriver, ptr @camera_driver, i32 0, i32 4), align 8
  %35 = call zeroext i1 @SDL_IterateHashTable(ptr noundef %34, ptr noundef @GetOneCamera, ptr noundef %8)
  br label %36

36:                                               ; preds = %29
  br label %37

37:                                               ; preds = %36
  br label %38

38:                                               ; preds = %37
  %39 = load ptr, ptr %6, align 8
  %40 = load i32, ptr %7, align 4
  %41 = sext i32 %40 to i64
  %42 = getelementptr inbounds i32, ptr %39, i64 %41
  store i32 0, ptr %42, align 4
  call void @llvm.lifetime.end.p0(i64 16, ptr %8) #7
  br label %43

43:                                               ; preds = %38, %28
  %44 = load ptr, ptr getelementptr inbounds nuw (%struct.SDL_CameraDriver, ptr @camera_driver, i32 0, i32 3), align 8
  call void @SDL_UnlockRWLock_REAL(ptr noundef %44)
  %45 = load i32, ptr %7, align 4
  %46 = load ptr, ptr %3, align 8
  store i32 %45, ptr %46, align 4
  %47 = load ptr, ptr %6, align 8
  store ptr %47, ptr %2, align 8
  store i32 1, ptr %5, align 4
  call void @llvm.lifetime.end.p0(i64 4, ptr %7) #7
  call void @llvm.lifetime.end.p0(i64 8, ptr %6) #7
  br label %48

48:                                               ; preds = %43, %15
  call void @llvm.lifetime.end.p0(i64 4, ptr %4) #7
  %49 = load ptr, ptr %2, align 8
  ret ptr %49
}