; Function Attrs: nounwind uwtable
define hidden ptr @SDL_GetCameras_REAL(ptr noundef writeonly captures(address_is_null) %0) local_unnamed_addr #1 {
  %2 = alloca %struct.GetOneCameraData, align 8
  %.not = icmp eq ptr %0, null
  %3 = load ptr, ptr @camera_driver, align 8
  %.not12 = icmp eq ptr %3, null
  br i1 %.not12, label %4, label %6

4:                                                ; preds = %1
  br i1 %.not, label %.cont, label %.else

.else:                                            ; preds = %4
  store i32 0, ptr %0, align 4
  br label %.cont

.cont:                                            ; preds = %4, %.else
  %5 = tail call zeroext i1 (ptr, ...) @SDL_SetError_REAL(ptr noundef nonnull @.str.3) #11
  br label %.cont14

6:                                                ; preds = %1
  %7 = load ptr, ptr getelementptr inbounds nuw (i8, ptr @camera_driver, i64 88), align 8
  tail call void @SDL_LockRWLockForReading_REAL(ptr noundef %7) #11
  %8 = tail call i32 @SDL_GetAtomicInt_REAL(ptr noundef nonnull getelementptr inbounds nuw (i8, ptr @camera_driver, i64 128)) #11
  %9 = add nsw i32 %8, 1
  %10 = sext i32 %9 to i64
  %11 = shl nsw i64 %10, 2
  %12 = tail call noalias ptr @SDL_malloc_REAL(i64 noundef %11) #11
  %.not13 = icmp eq ptr %12, null
  br i1 %.not13, label %20, label %13

13:                                               ; preds = %6
  call void @llvm.lifetime.start.p0(i64 16, ptr nonnull %2) #11
  store ptr %12, ptr %2, align 8
  %14 = getelementptr inbounds nuw i8, ptr %2, i64 8
  store i32 0, ptr %14, align 8
  %15 = getelementptr inbounds nuw i8, ptr %2, i64 12
  store i32 0, ptr %15, align 4
  %16 = load ptr, ptr getelementptr inbounds nuw (i8, ptr @camera_driver, i64 96), align 8
  %17 = call zeroext i1 @SDL_IterateHashTable(ptr noundef %16, ptr noundef nonnull @GetOneCamera, ptr noundef nonnull %2) #11
  %18 = sext i32 %8 to i64
  %19 = getelementptr inbounds i32, ptr %12, i64 %18
  store i32 0, ptr %19, align 4
  call void @llvm.lifetime.end.p0(i64 16, ptr nonnull %2) #11
  br label %20

20:                                               ; preds = %6, %13
  %.0 = phi i32 [ %8, %13 ], [ 0, %6 ]
  %21 = load ptr, ptr getelementptr inbounds nuw (i8, ptr @camera_driver, i64 88), align 8
  call void @SDL_UnlockRWLock_REAL(ptr noundef %21) #11
  br i1 %.not, label %.cont14, label %.else16

.else16:                                          ; preds = %20
  store i32 %.0, ptr %0, align 4
  br label %.cont14

.cont14:                                          ; preds = %.else16, %20, %.cont
  %.010 = phi ptr [ null, %.cont ], [ %12, %20 ], [ %12, %.else16 ]
  ret ptr %.010
}